; Function Attrs: mustprogress uwtable
define void @_ZNK5arrow5Array5SliceEl(ptr dead_on_unwind noalias writable sret(%"class.std::shared_ptr.26") align 8 %0, ptr noundef nonnull readonly align 8 captures(none) dereferenceable(32) %1, i64 noundef %2) local_unnamed_addr #1 align 2 {
  %4 = getelementptr inbounds nuw i8, ptr %1, i64 8
  %5 = load ptr, ptr %4, align 8, !tbaa !32
  %6 = getelementptr inbounds nuw i8, ptr %5, i64 16
  %7 = load i64, ptr %6, align 8, !tbaa !55
  %8 = sub nsw i64 %7, %2
  tail call void @_ZNK5arrow5Array5SliceEll(ptr dead_on_unwind writable sret(%"class.std::shared_ptr.26") align 8 %0, ptr noundef nonnull align 8 dereferenceable(32) %1, i64 noundef %2, i64 noundef %8)
  ret void
}